; ModuleID = 'bench/hdf5/original/H5VLquery.ll'
source_filename = "bench/hdf5/original/H5VLquery.ll"
target datalayout = "e-m:e-p270:32:32-p271:32:32-p272:64:64-i64:64-i128:128-f80:128-n8:16:32:64-S128"
target triple = "x86_64-pc-linux-gnu"

@H5VL_init_g = external local_unnamed_addr global i8, align 1
@H5_libterm_g = external local_unnamed_addr global i8, align 1

; Function Attrs: mustprogress nofree norecurse nosync nounwind willreturn memory(argmem: read) uwtable
define i64 @H5VL_obj_get_rc(ptr noundef readonly captures(none) %0) local_unnamed_addr #0 {
  %2 = getelementptr inbounds nuw i8, ptr %0, i64 16
  %3 = load i64, ptr %2, align 8, !tbaa !3
  ret i64 %3
}

; Function Attrs: mustprogress nofree norecurse nosync nounwind willreturn memory(argmem: read) uwtable
define ptr @H5VL_obj_get_connector(ptr noundef readonly captures(none) %0) local_unnamed_addr #0 {
  %2 = getelementptr inbounds nuw i8, ptr %0, i64 8
  %3 = load ptr, ptr %2, align 8, !tbaa !10
  ret ptr %3
}

; Function Attrs: mustprogress nofree norecurse nosync nounwind willreturn memory(argmem: read) uwtable
define ptr @H5VL_obj_get_data(ptr noundef readonly captures(none) %0) local_unnamed_addr #0 {
  %2 = load ptr, ptr %0, align 8, !tbaa !11
  ret ptr %2
}

; Function Attrs: mustprogress nofree norecurse nosync nounwind willreturn memory(read, argmem: write, inaccessiblemem: none) uwtable
define void @H5VL_obj_reset_data(ptr noundef writeonly captures(none) %0) local_unnamed_addr #1 {
  %2 = load i8, ptr @H5VL_init_g, align 1, !tbaa !12, !range !14, !noundef !15
  %3 = trunc nuw i8 %2 to i1
  %4 = load i8, ptr @H5_libterm_g, align 1, !range !14
  %5 = trunc nuw i8 %4 to i1
  %6 = xor i1 %5, true
  %7 = select i1 %3, i1 true, i1 %6
  br i1 %7, label %8, label %9, !prof !16

8:                                                ; preds = %1
  store ptr null, ptr %0, align 8, !tbaa !11
  br label %9

9:                                                ; preds = %8, %1
  ret void
}


!llvm.module.flags = !{!0, !1, !2}

!0 = !{i32 1, !"wchar_size", i32 4}
!1 = !{i32 8, !"PIC Level", i32 2}
!2 = !{i32 7, !"uwtable", i32 2}
!3 = !{!4, !9, i64 16}
!4 = !{!"H5VL_object_t", !5, i64 0, !8, i64 8, !9, i64 16}
!5 = !{!"any pointer", !6, i64 0}
!6 = !{!"omnipotent char", !7, i64 0}
!7 = !{!"Simple C/C++ TBAA"}
!8 = !{!"p1 _ZTS16H5VL_connector_t", !5, i64 0}
!9 = !{!"long", !6, i64 0}
!10 = !{!4, !8, i64 8}
!11 = !{!4, !5, i64 0}
!12 = !{!13, !13, i64 0}
!13 = !{!"_Bool", !6, i64 0}
!14 = !{i8 0, i8 2}
!15 = !{}
!16 = !{!"branch_weights", !"expected", i32 2000, i32 1}
